(lp0
(lp1
F45.407869000000005
aF-75.719062
aa(lp2
F45.407841
aF-75.719173
aa(lp3
F45.407849240430544
aF-75.71917812923863
aa(lp4
F45.407877151896145
aF-75.71906740686035
aa(lp5
F45.40788530379203
aF-75.71907281372225
aa(lp6
F45.40785748086084
aF-75.71918325847876
aa(lp7
F45.4078657212909
aF-75.71918838772038
aa(lp8
F45.40789345568764
aF-75.7190782205857
aa(lp9
F45.407901607583
aF-75.71908362745071
aa(lp10
F45.40787396172072
aF-75.7191935169635
aa(lp11
F45.40788220215029
aF-75.7191986462081
aa(lp12
F45.40790975947807
aF-75.71908903431728
aa(lp13
F45.40791791137289
aF-75.7190944411854
aa(lp14
F45.40789044257963
aF-75.7192037754542
aa(lp15
F45.40789868300872
aF-75.71920890470179
aa(lp16
F45.407926063267425
aF-75.71909984805508
aa(lp17
F45.4079342151617
aF-75.71910525492632
aa(lp18
F45.40790692343756
aF-75.71921403395086
aa(lp19
F45.40791516386616
aF-75.71921916320144
aa(lp20
F45.40794236705572
aF-75.7191106617991
aa(lp21
F45.40795051894946
aF-75.71911606867346
aa(lp22
F45.40792340429452
aF-75.7192242924535
aa(lp23
F45.40793164472265
aF-75.71922942170706
aa(lp24
F45.40795867084294
aF-75.71912147554936
aa(lp25
F45.407966822736135
aF-75.7191268824268
aa.